; Function Attrs: nofree norecurse nosync nounwind memory(readwrite, inaccessiblemem: none) uwtable
define void @Ivy_ManCleanTravId(ptr noundef captures(none) initializes((176, 180)) %0) local_unnamed_addr #0 {
  %2 = getelementptr inbounds nuw i8, ptr %0, i64 176
  store i32 1, ptr %2, align 8
  %3 = getelementptr inbounds nuw i8, ptr %0, i64 24
  %4 = load ptr, ptr %3, align 8
  %5 = getelementptr i8, ptr %4, i64 4
  %.val9 = load i32, ptr %5, align 4
  %6 = icmp sgt i32 %.val9, 0
  br i1 %6, label %.lr.ph, label %.critedge

.lr.ph:                                           ; preds = %1, %14
  %7 = phi ptr [ %15, %14 ], [ %4, %1 ]
  %indvars.iv = phi i64 [ %indvars.iv.next, %14 ], [ 0, %1 ]
  %8 = getelementptr i8, ptr %7, i64 8
  %.val8 = load ptr, ptr %8, align 8
  %9 = getelementptr inbounds nuw ptr, ptr %.val8, i64 %indvars.iv
  %10 = load ptr, ptr %9, align 8
  %11 = icmp eq ptr %10, null
  br i1 %11, label %14, label %12

12:                                               ; preds = %.lr.ph
  %13 = getelementptr inbounds nuw i8, ptr %10, i64 4
  store i32 0, ptr %13, align 4
  %.pre = load ptr, ptr %3, align 8
  br label %14

14:                                               ; preds = %12, %.lr.ph
  %15 = phi ptr [ %.pre, %12 ], [ %7, %.lr.ph ]
  %indvars.iv.next = add nuw nsw i64 %indvars.iv, 1
  %16 = getelementptr i8, ptr %15, i64 4
  %.val = load i32, ptr %16, align 4
  %17 = sext i32 %.val to i64
  %18 = icmp slt i64 %indvars.iv.next, %17
  br i1 %18, label %.lr.ph, label %.critedge, !llvm.loop !4

.critedge:                                        ; preds = %14, %1
  ret void
}